	.file	"strcpy-asm.c"
	.text
	.globl	Strcpy
	.type	Strcpy, @function
Strcpy:
.LFB0:
	.cfi_startproc
	pushq	%rbp
	.cfi_def_cfa_offset 16
	.cfi_offset 6, -16
	movq	%rsp, %rbp
	.cfi_def_cfa_register 6
	movq	%rdi, -8(%rbp)
	movq	%rsi, -16(%rbp)
	nop
.L2:
	movq	-8(%rbp), %rax
	leaq	1(%rax), %rdx
	movq	%rdx, -8(%rbp)
	movq	-16(%rbp), %rdx
	leaq	1(%rdx), %rcx
	movq	%rcx, -16(%rbp)
	movzbl	(%rdx), %edx
	movb	%dl, (%rax)
	movzbl	(%rax), %eax
	testb	%al, %al
	jne	.L2
	nop
	popq	%rbp
	.cfi_def_cfa 7, 8
	ret
	.cfi_endproc
.LFE0:
	.size	Strcpy, .-Strcpy
	.globl	Strcpy_1
	.type	Strcpy_1, @function
Strcpy_1:
.LFB1:
	.cfi_startproc
	pushq	%rbp
	.cfi_def_cfa_offset 16
	.cfi_offset 6, -16
	movq	%rsp, %rbp
	.cfi_def_cfa_register 6
	movq	%rdi, -24(%rbp)
	movq	%rsi, -32(%rbp)
	movq	-24(%rbp), %rax
	movq	%rax, -16(%rbp)
	movq	-32(%rbp), %rax
	movq	%rax, -8(%rbp)
	nop
.L4:
	movq	-16(%rbp), %rax
	leaq	1(%rax), %rdx
	movq	%rdx, -16(%rbp)
	movq	-8(%rbp), %rdx
	leaq	1(%rdx), %rcx
	movq	%rcx, -8(%rbp)
	movzbl	(%rdx), %edx
	movb	%dl, (%rax)
	movzbl	(%rax), %eax
	testb	%al, %al
	jne	.L4
	nop
	popq	%rbp
	.cfi_def_cfa 7, 8
	ret
	.cfi_endproc
.LFE1:
	.size	Strcpy_1, .-Strcpy_1
	.ident	"GCC: (Ubuntu 5.4.0-6ubuntu1~16.04.4) 5.4.0 20160609"
	.section	.note.GNU-stack,"",@progbits
